; Function Attrs: mustprogress nofree norecurse nosync nounwind willreturn memory(read, argmem: readwrite, inaccessiblemem: none) uwtable
define noundef i32 @_ZNK10OpenSubdiv6v3_6_03Vtr8internal5Level27gatherQuadLinearPatchPointsEiPiii(ptr noundef nonnull readonly align 8 captures(none) dereferenceable(480) %0, i32 noundef %1, ptr noundef writeonly captures(none) initializes((0, 16)) %2, i32 noundef %3, i32 noundef %4) local_unnamed_addr #16 align 2 {
  %6 = icmp slt i32 %4, 0
  br i1 %6, label %7, label %19

7:                                                ; preds = %5
  %8 = getelementptr inbounds nuw i8, ptr %0, i64 48
  %9 = getelementptr inbounds nuw i8, ptr %0, i64 24
  %10 = shl nsw i32 %1, 1
  %11 = or disjoint i32 %10, 1
  %12 = sext i32 %11 to i64
  %13 = load ptr, ptr %9, align 8
  %14 = getelementptr inbounds i32, ptr %13, i64 %12
  %15 = load i32, ptr %14, align 4
  %16 = sext i32 %15 to i64
  %17 = load ptr, ptr %8, align 8
  %18 = getelementptr inbounds i32, ptr %17, i64 %16
  br label %37

19:                                               ; preds = %5
  %20 = getelementptr inbounds nuw i8, ptr %0, i64 456
  %21 = zext nneg i32 %4 to i64
  %22 = load ptr, ptr %20, align 8
  %23 = getelementptr inbounds nuw ptr, ptr %22, i64 %21
  %24 = load ptr, ptr %23, align 8
  %25 = load ptr, ptr %24, align 8
  %26 = getelementptr inbounds nuw i8, ptr %25, i64 24
  %27 = shl nsw i32 %1, 1
  %28 = load ptr, ptr %26, align 8
  %29 = or disjoint i32 %27, 1
  %30 = sext i32 %29 to i64
  %31 = getelementptr inbounds i32, ptr %28, i64 %30
  %32 = load i32, ptr %31, align 4
  %33 = getelementptr inbounds nuw i8, ptr %24, i64 24
  %34 = sext i32 %32 to i64
  %35 = load ptr, ptr %33, align 8
  %36 = getelementptr inbounds i32, ptr %35, i64 %34
  br label %37

37:                                               ; preds = %19, %7
  %.sroa.0.0 = phi ptr [ %18, %7 ], [ %36, %19 ]
  %38 = sext i32 %3 to i64
  %39 = getelementptr inbounds [7 x i32], ptr @_ZZNK10OpenSubdiv6v3_6_03Vtr8internal5Level36gatherQuadRegularInteriorPatchPointsEiPiiiE16rotationSequence, i64 0, i64 %38
  %40 = load i32, ptr %39, align 4
  %41 = sext i32 %40 to i64
  %42 = getelementptr inbounds i32, ptr %.sroa.0.0, i64 %41
  %43 = load i32, ptr %42, align 4
  store i32 %43, ptr %2, align 4
  %44 = getelementptr inbounds nuw i8, ptr %39, i64 4
  %45 = load i32, ptr %44, align 4
  %46 = sext i32 %45 to i64
  %47 = getelementptr inbounds i32, ptr %.sroa.0.0, i64 %46
  %48 = load i32, ptr %47, align 4
  %49 = getelementptr inbounds nuw i8, ptr %2, i64 4
  store i32 %48, ptr %49, align 4
  %50 = getelementptr inbounds nuw i8, ptr %39, i64 8
  %51 = load i32, ptr %50, align 4
  %52 = sext i32 %51 to i64
  %53 = getelementptr inbounds i32, ptr %.sroa.0.0, i64 %52
  %54 = load i32, ptr %53, align 4
  %55 = getelementptr inbounds nuw i8, ptr %2, i64 8
  store i32 %54, ptr %55, align 4
  %56 = getelementptr inbounds nuw i8, ptr %39, i64 12
  %57 = load i32, ptr %56, align 4
  %58 = sext i32 %57 to i64
  %59 = getelementptr inbounds i32, ptr %.sroa.0.0, i64 %58
  %60 = load i32, ptr %59, align 4
  %61 = getelementptr inbounds nuw i8, ptr %2, i64 12
  store i32 %60, ptr %61, align 4
  ret i32 4
}